target datalayout = "e-m:e-p270:32:32-p271:32:32-p272:64:64-i64:64-i128:128-f80:128-n8:16:32:64-S128"
target triple = "x86_64-pc-linux-gnu"

@.str.1 = private unnamed_addr constant [27 x i8] c"../openssl/apps/lib/apps.c\00", align 1
@bio_err = external global ptr, align 8
@stdin = external global ptr, align 8
@.str.116 = private unnamed_addr constant [2 x i8] c"r\00", align 1
@.str.117 = private unnamed_addr constant [15 x i8] c"Out of memory\0A\00", align 1
@app_get_pass.pwdbio = internal global ptr null, align 8
@.str.189 = private unnamed_addr constant [6 x i8] c"pass:\00", align 1
@.str.190 = private unnamed_addr constant [5 x i8] c"env:\00", align 1
@.str.191 = private unnamed_addr constant [28 x i8] c"No environment variable %s\0A\00", align 1
@.str.192 = private unnamed_addr constant [6 x i8] c"file:\00", align 1
@.str.193 = private unnamed_addr constant [20 x i8] c"Can't open file %s\0A\00", align 1
@.str.194 = private unnamed_addr constant [4 x i8] c"fd:\00", align 1
@.str.195 = private unnamed_addr constant [33 x i8] c"Can't access file descriptor %s\0A\00", align 1
@.str.196 = private unnamed_addr constant [6 x i8] c"stdin\00", align 1
@.str.197 = private unnamed_addr constant [26 x i8] c"Can't open BIO for stdin\0A\00", align 1
@.str.198 = private unnamed_addr constant [66 x i8] c"Invalid password argument, missing ':' within the first %d chars\0A\00", align 1
@.str.199 = private unnamed_addr constant [49 x i8] c"Invalid password argument, starting with \22%.*s\22\0A\00", align 1
@.str.200 = private unnamed_addr constant [33 x i8] c"Error reading password from BIO\0A\00", align 1

; Function Attrs: nounwind uwtable
define dso_local ptr @dup_bio_in(i32 noundef %0) #0 {
  %2 = alloca i32, align 4
  store i32 %0, ptr %2, align 4, !tbaa !25
  %3 = load ptr, ptr @stdin, align 8, !tbaa !41
  %4 = load i32, ptr %2, align 4, !tbaa !25
  %5 = call i32 @FMT_istext(i32 noundef %4)
  %6 = icmp ne i32 %5, 0
  %7 = select i1 %6, i32 16, i32 0
  %8 = or i32 0, %7
  %9 = call ptr @BIO_new_fp(ptr noundef %3, i32 noundef %8)
  ret ptr %9
}

; Function Attrs: nounwind uwtable
define dso_local void @unbuffer(ptr noundef %0) #0 {
  %2 = alloca ptr, align 8
  store ptr %0, ptr %2, align 8, !tbaa !41
  %3 = load ptr, ptr %2, align 8, !tbaa !41
  call void @setbuf(ptr noundef %3, ptr noundef null) #12
  ret void
}

; Function Attrs: inlinehint nounwind willreturn memory(read) uwtable
define available_externally i32 @atoi(ptr noundef nonnull %0) #10 {
  %2 = alloca ptr, align 8
  store ptr %0, ptr %2, align 8, !tbaa !9
  %3 = load ptr, ptr %2, align 8, !tbaa !9
  %4 = call i64 @strtol(ptr noundef %3, ptr noundef null, i32 noundef 10) #12
  %5 = trunc i64 %4 to i32
  ret i32 %5
}

; Function Attrs: nounwind uwtable
define internal ptr @app_get_pass(ptr noundef %0, i32 noundef %1) #0 {
  %3 = alloca ptr, align 8
  %4 = alloca ptr, align 8
  %5 = alloca i32, align 4
  %6 = alloca ptr, align 8
  %7 = alloca [1024 x i8], align 16
  %8 = alloca i32, align 4
  %9 = alloca i32, align 4
  %10 = alloca ptr, align 8
  store ptr %0, ptr %4, align 8, !tbaa !9
  store i32 %1, ptr %5, align 4, !tbaa !25
  call void @llvm.lifetime.start.p0(i64 8, ptr %6) #12
  call void @llvm.lifetime.start.p0(i64 1024, ptr %7) #12
  call void @llvm.lifetime.start.p0(i64 4, ptr %8) #12
  %11 = load ptr, ptr %4, align 8, !tbaa !9
  %12 = call i32 @strncmp(ptr noundef %11, ptr noundef @.str.189, i64 noundef 5) #14
  %13 = icmp eq i32 %12, 0
  br i1 %13, label %14, label %17

14:                                               ; preds = %2
  %15 = load ptr, ptr %4, align 8, !tbaa !9
  %16 = getelementptr inbounds nuw i8, ptr %15, i64 5
  store ptr %16, ptr %4, align 8, !tbaa !9
  br i1 true, label %18, label %21

17:                                               ; preds = %2
  br i1 false, label %18, label %21

18:                                               ; preds = %17, %14
  %19 = load ptr, ptr %4, align 8, !tbaa !9
  %20 = call noalias ptr @CRYPTO_strdup(ptr noundef %19, ptr noundef @.str.1, i32 noundef 259)
  store ptr %20, ptr %3, align 8
  store i32 1, ptr %9, align 4
  br label %174

21:                                               ; preds = %17, %14
  %22 = load ptr, ptr %4, align 8, !tbaa !9
  %23 = call i32 @strncmp(ptr noundef %22, ptr noundef @.str.190, i64 noundef 4) #14
  %24 = icmp eq i32 %23, 0
  br i1 %24, label %25, label %28

25:                                               ; preds = %21
  %26 = load ptr, ptr %4, align 8, !tbaa !9
  %27 = getelementptr inbounds nuw i8, ptr %26, i64 4
  store ptr %27, ptr %4, align 8, !tbaa !9
  br i1 true, label %29, label %41

28:                                               ; preds = %21
  br i1 false, label %29, label %41

29:                                               ; preds = %28, %25
  %30 = load ptr, ptr %4, align 8, !tbaa !9
  %31 = call ptr @getenv(ptr noundef %30) #12
  store ptr %31, ptr %6, align 8, !tbaa !9
  %32 = load ptr, ptr %6, align 8, !tbaa !9
  %33 = icmp eq ptr %32, null
  br i1 %33, label %34, label %38

34:                                               ; preds = %29
  %35 = load ptr, ptr @bio_err, align 8, !tbaa !35
  %36 = load ptr, ptr %4, align 8, !tbaa !9
  %37 = call i32 (ptr, ptr, ...) @BIO_printf(ptr noundef %35, ptr noundef @.str.191, ptr noundef %36)
  store ptr null, ptr %3, align 8
  store i32 1, ptr %9, align 4
  br label %174

38:                                               ; preds = %29
  %39 = load ptr, ptr %6, align 8, !tbaa !9
  %40 = call noalias ptr @CRYPTO_strdup(ptr noundef %39, ptr noundef @.str.1, i32 noundef 266)
  store ptr %40, ptr %3, align 8
  store i32 1, ptr %9, align 4
  br label %174

41:                                               ; preds = %28, %25
  %42 = load i32, ptr %5, align 4, !tbaa !25
  %43 = icmp ne i32 %42, 0
  br i1 %43, label %44, label %47

44:                                               ; preds = %41
  %45 = load ptr, ptr @app_get_pass.pwdbio, align 8, !tbaa !35
  %46 = icmp eq ptr %45, null
  br i1 %46, label %47, label %150

47:                                               ; preds = %44, %41
  %48 = load ptr, ptr %4, align 8, !tbaa !9
  %49 = call i32 @strncmp(ptr noundef %48, ptr noundef @.str.192, i64 noundef 5) #14
  %50 = icmp eq i32 %49, 0
  br i1 %50, label %51, label %54

51:                                               ; preds = %47
  %52 = load ptr, ptr %4, align 8, !tbaa !9
  %53 = getelementptr inbounds nuw i8, ptr %52, i64 5
  store ptr %53, ptr %4, align 8, !tbaa !9
  br i1 true, label %55, label %65

54:                                               ; preds = %47
  br i1 false, label %55, label %65

55:                                               ; preds = %54, %51
  %56 = load ptr, ptr %4, align 8, !tbaa !9
  %57 = call ptr @BIO_new_file(ptr noundef %56, ptr noundef @.str.116)
  store ptr %57, ptr @app_get_pass.pwdbio, align 8, !tbaa !35
  %58 = load ptr, ptr @app_get_pass.pwdbio, align 8, !tbaa !35
  %59 = icmp eq ptr %58, null
  br i1 %59, label %60, label %64

60:                                               ; preds = %55
  %61 = load ptr, ptr @bio_err, align 8, !tbaa !35
  %62 = load ptr, ptr %4, align 8, !tbaa !9
  %63 = call i32 (ptr, ptr, ...) @BIO_printf(ptr noundef %61, ptr noundef @.str.193, ptr noundef %62)
  store ptr null, ptr %3, align 8
  store i32 1, ptr %9, align 4
  br label %174

64:                                               ; preds = %55
  br label %149

65:                                               ; preds = %54, %51
  %66 = load ptr, ptr %4, align 8, !tbaa !9
  %67 = call i32 @strncmp(ptr noundef %66, ptr noundef @.str.194, i64 noundef 3) #14
  %68 = icmp eq i32 %67, 0
  br i1 %68, label %69, label %72

69:                                               ; preds = %65
  %70 = load ptr, ptr %4, align 8, !tbaa !9
  %71 = getelementptr inbounds nuw i8, ptr %70, i64 3
  store ptr %71, ptr %4, align 8, !tbaa !9
  br i1 true, label %73, label %107

72:                                               ; preds = %65
  br i1 false, label %73, label %107

73:                                               ; preds = %72, %69
  call void @llvm.lifetime.start.p0(i64 8, ptr %10) #12
  %74 = load ptr, ptr %4, align 8, !tbaa !9
  %75 = call i32 @atoi(ptr noundef %74) #14
  store i32 %75, ptr %8, align 4, !tbaa !25
  %76 = load i32, ptr %8, align 4, !tbaa !25
  %77 = icmp sge i32 %76, 0
  br i1 %77, label %78, label %81

78:                                               ; preds = %73
  %79 = load i32, ptr %8, align 4, !tbaa !25
  %80 = call ptr @BIO_new_fd(i32 noundef %79, i32 noundef 0)
  store ptr %80, ptr @app_get_pass.pwdbio, align 8, !tbaa !35
  br label %81

81:                                               ; preds = %78, %73
  %82 = load i32, ptr %8, align 4, !tbaa !25
  %83 = icmp slt i32 %82, 0
  br i1 %83, label %87, label %84

84:                                               ; preds = %81
  %85 = load ptr, ptr @app_get_pass.pwdbio, align 8, !tbaa !35
  %86 = icmp eq ptr %85, null
  br i1 %86, label %87, label %91

87:                                               ; preds = %84, %81
  %88 = load ptr, ptr @bio_err, align 8, !tbaa !35
  %89 = load ptr, ptr %4, align 8, !tbaa !9
  %90 = call i32 (ptr, ptr, ...) @BIO_printf(ptr noundef %88, ptr noundef @.str.195, ptr noundef %89)
  store ptr null, ptr %3, align 8
  store i32 1, ptr %9, align 4
  br label %104

91:                                               ; preds = %84
  %92 = call ptr @BIO_f_buffer()
  %93 = call ptr @BIO_new(ptr noundef %92)
  store ptr %93, ptr %10, align 8, !tbaa !35
  %94 = load ptr, ptr %10, align 8, !tbaa !35
  %95 = icmp eq ptr %94, null
  br i1 %95, label %96, label %100

96:                                               ; preds = %91
  %97 = load ptr, ptr @app_get_pass.pwdbio, align 8, !tbaa !35
  call void @BIO_free_all(ptr noundef %97)
  store ptr null, ptr @app_get_pass.pwdbio, align 8, !tbaa !35
  %98 = load ptr, ptr @bio_err, align 8, !tbaa !35
  %99 = call i32 (ptr, ptr, ...) @BIO_printf(ptr noundef %98, ptr noundef @.str.117)
  store ptr null, ptr %3, align 8
  store i32 1, ptr %9, align 4
  br label %104

100:                                              ; preds = %91
  %101 = load ptr, ptr %10, align 8, !tbaa !35
  %102 = load ptr, ptr @app_get_pass.pwdbio, align 8, !tbaa !35
  %103 = call ptr @BIO_push(ptr noundef %101, ptr noundef %102)
  store ptr %103, ptr @app_get_pass.pwdbio, align 8, !tbaa !35
  store i32 0, ptr %9, align 4
  br label %104

104:                                              ; preds = %100, %96, %87
  call void @llvm.lifetime.end.p0(i64 8, ptr %10) #12
  %105 = load i32, ptr %9, align 4
  switch i32 %105, label %174 [
    i32 0, label %106
  ]

106:                                              ; preds = %104
  br label %148

107:                                              ; preds = %72, %69
  %108 = load ptr, ptr %4, align 8, !tbaa !9
  %109 = call i32 @strcmp(ptr noundef %108, ptr noundef @.str.196) #14
  %110 = icmp eq i32 %109, 0
  br i1 %110, label %111, label %120

111:                                              ; preds = %107
  %112 = load ptr, ptr @stdin, align 8, !tbaa !41
  call void @unbuffer(ptr noundef %112)
  %113 = call ptr @dup_bio_in(i32 noundef 32769)
  store ptr %113, ptr @app_get_pass.pwdbio, align 8, !tbaa !35
  %114 = load ptr, ptr @app_get_pass.pwdbio, align 8, !tbaa !35
  %115 = icmp eq ptr %114, null
  br i1 %115, label %116, label %119

116:                                              ; preds = %111
  %117 = load ptr, ptr @bio_err, align 8, !tbaa !35
  %118 = call i32 (ptr, ptr, ...) @BIO_printf(ptr noundef %117, ptr noundef @.str.197)
  store ptr null, ptr %3, align 8
  store i32 1, ptr %9, align 4
  br label %174

119:                                              ; preds = %111
  br label %147

120:                                              ; preds = %107
  %121 = load ptr, ptr %4, align 8, !tbaa !9
  %122 = call ptr @strchr(ptr noundef %121, i32 noundef 58) #14
  store ptr %122, ptr %6, align 8, !tbaa !9
  %123 = load ptr, ptr %6, align 8, !tbaa !9
  %124 = icmp eq ptr %123, null
  br i1 %124, label %132, label %125

125:                                              ; preds = %120
  %126 = load ptr, ptr %6, align 8, !tbaa !9
  %127 = load ptr, ptr %4, align 8, !tbaa !9
  %128 = ptrtoint ptr %126 to i64
  %129 = ptrtoint ptr %127 to i64
  %130 = sub i64 %128, %129
  %131 = icmp sgt i64 %130, 4
  br i1 %131, label %132, label %135

132:                                              ; preds = %125, %120
  %133 = load ptr, ptr @bio_err, align 8, !tbaa !35
  %134 = call i32 (ptr, ptr, ...) @BIO_printf(ptr noundef %133, ptr noundef @.str.198, i32 noundef 5)
  br label %146

135:                                              ; preds = %125
  %136 = load ptr, ptr @bio_err, align 8, !tbaa !35
  %137 = load ptr, ptr %6, align 8, !tbaa !9
  %138 = load ptr, ptr %4, align 8, !tbaa !9
  %139 = ptrtoint ptr %137 to i64
  %140 = ptrtoint ptr %138 to i64
  %141 = sub i64 %139, %140
  %142 = add nsw i64 %141, 1
  %143 = trunc i64 %142 to i32
  %144 = load ptr, ptr %4, align 8, !tbaa !9
  %145 = call i32 (ptr, ptr, ...) @BIO_printf(ptr noundef %136, ptr noundef @.str.199, i32 noundef %143, ptr noundef %144)
  br label %146

146:                                              ; preds = %135, %132
  store ptr null, ptr %3, align 8
  store i32 1, ptr %9, align 4
  br label %174

147:                                              ; preds = %119
  br label %148

148:                                              ; preds = %147, %106
  br label %149

149:                                              ; preds = %148, %64
  br label %150

150:                                              ; preds = %149, %44
  %151 = load ptr, ptr @app_get_pass.pwdbio, align 8, !tbaa !35
  %152 = getelementptr inbounds [1024 x i8], ptr %7, i64 0, i64 0
  %153 = call i32 @BIO_gets(ptr noundef %151, ptr noundef %152, i32 noundef 1024)
  store i32 %153, ptr %8, align 4, !tbaa !25
  %154 = load i32, ptr %5, align 4, !tbaa !25
  %155 = icmp ne i32 %154, 1
  br i1 %155, label %156, label %158

156:                                              ; preds = %150
  %157 = load ptr, ptr @app_get_pass.pwdbio, align 8, !tbaa !35
  call void @BIO_free_all(ptr noundef %157)
  store ptr null, ptr @app_get_pass.pwdbio, align 8, !tbaa !35
  br label %158

158:                                              ; preds = %156, %150
  %159 = load i32, ptr %8, align 4, !tbaa !25
  %160 = icmp sle i32 %159, 0
  br i1 %160, label %161, label %164

161:                                              ; preds = %158
  %162 = load ptr, ptr @bio_err, align 8, !tbaa !35
  %163 = call i32 (ptr, ptr, ...) @BIO_printf(ptr noundef %162, ptr noundef @.str.200)
  store ptr null, ptr %3, align 8
  store i32 1, ptr %9, align 4
  br label %174

164:                                              ; preds = %158
  %165 = getelementptr inbounds [1024 x i8], ptr %7, i64 0, i64 0
  %166 = call ptr @strchr(ptr noundef %165, i32 noundef 10) #14
  store ptr %166, ptr %6, align 8, !tbaa !9
  %167 = load ptr, ptr %6, align 8, !tbaa !9
  %168 = icmp ne ptr %167, null
  br i1 %168, label %169, label %171

169:                                              ; preds = %164
  %170 = load ptr, ptr %6, align 8, !tbaa !9
  store i8 0, ptr %170, align 1, !tbaa !11
  br label %171

171:                                              ; preds = %169, %164
  %172 = getelementptr inbounds [1024 x i8], ptr %7, i64 0, i64 0
  %173 = call noalias ptr @CRYPTO_strdup(ptr noundef %172, ptr noundef @.str.1, i32 noundef 339)
  store ptr %173, ptr %3, align 8
  store i32 1, ptr %9, align 4
  br label %174

174:                                              ; preds = %171, %161, %146, %116, %104, %60, %38, %34, %18
  call void @llvm.lifetime.end.p0(i64 4, ptr %8) #12
  call void @llvm.lifetime.end.p0(i64 1024, ptr %7) #12
  call void @llvm.lifetime.end.p0(i64 8, ptr %6) #12
  %175 = load ptr, ptr %3, align 8
  ret ptr %175
}