; Function Attrs: nounwind uwtable
define internal fastcc noalias ptr @app_get_pass(ptr noundef nonnull %0, i32 noundef range(i32 0, 3) %1) unnamed_addr #0 {
  %3 = alloca [1024 x i8], align 16
  call void @llvm.lifetime.start.p0(i64 1024, ptr nonnull %3) #27
  %4 = tail call i32 @strncmp(ptr noundef nonnull dereferenceable(1) %0, ptr noundef nonnull dereferenceable(6) @.str.189, i64 noundef 5) #29
  %5 = icmp eq i32 %4, 0
  br i1 %5, label %6, label %9

6:                                                ; preds = %2
  %7 = getelementptr inbounds nuw i8, ptr %0, i64 5
  %8 = tail call noalias ptr @CRYPTO_strdup(ptr noundef nonnull %7, ptr noundef nonnull @.str.1, i32 noundef 259) #27
  br label %.critedge

9:                                                ; preds = %2
  %10 = tail call i32 @strncmp(ptr noundef nonnull dereferenceable(1) %0, ptr noundef nonnull dereferenceable(5) @.str.190, i64 noundef 4) #29
  %11 = icmp eq i32 %10, 0
  br i1 %11, label %12, label %21

12:                                               ; preds = %9
  %13 = getelementptr inbounds nuw i8, ptr %0, i64 4
  %14 = tail call ptr @getenv(ptr noundef nonnull %13) #27
  %15 = icmp eq ptr %14, null
  br i1 %15, label %16, label %19

16:                                               ; preds = %12
  %17 = load ptr, ptr @bio_err, align 8, !tbaa !26
  %18 = tail call i32 (ptr, ptr, ...) @BIO_printf(ptr noundef %17, ptr noundef nonnull @.str.191, ptr noundef nonnull %13) #27
  br label %.critedge

19:                                               ; preds = %12
  %20 = tail call noalias ptr @CRYPTO_strdup(ptr noundef nonnull %14, ptr noundef nonnull @.str.1, i32 noundef 266) #27
  br label %.critedge

21:                                               ; preds = %9
  %22 = icmp eq i32 %1, 0
  %23 = load ptr, ptr @app_get_pass.pwdbio, align 8
  %24 = icmp eq ptr %23, null
  %or.cond = select i1 %22, i1 true, i1 %24
  br i1 %or.cond, label %25, label %89

25:                                               ; preds = %21
  %26 = tail call i32 @strncmp(ptr noundef nonnull dereferenceable(1) %0, ptr noundef nonnull dereferenceable(6) @.str.192, i64 noundef 5) #29
  %27 = icmp eq i32 %26, 0
  br i1 %27, label %28, label %sub_0

28:                                               ; preds = %25
  %29 = getelementptr inbounds nuw i8, ptr %0, i64 5
  %30 = tail call ptr @BIO_new_file(ptr noundef nonnull %29, ptr noundef nonnull @.str.116) #27
  store ptr %30, ptr @app_get_pass.pwdbio, align 8, !tbaa !26
  %31 = icmp eq ptr %30, null
  br i1 %31, label %32, label %89

32:                                               ; preds = %28
  %33 = load ptr, ptr @bio_err, align 8, !tbaa !26
  %34 = tail call i32 (ptr, ptr, ...) @BIO_printf(ptr noundef %33, ptr noundef nonnull @.str.193, ptr noundef nonnull %29) #27
  br label %.critedge

sub_0:                                            ; preds = %25
  %35 = load i8, ptr %0, align 1
  %.not48 = icmp eq i8 %35, 102
  br i1 %.not48, label %sub_1, label %.tail.thread

sub_1:                                            ; preds = %sub_0
  %36 = getelementptr inbounds nuw i8, ptr %0, i64 1
  %37 = load i8, ptr %36, align 1
  %.not49 = icmp eq i8 %37, 100
  br i1 %.not49, label %.tail, label %.tail.thread

.tail:                                            ; preds = %sub_1
  %38 = getelementptr inbounds nuw i8, ptr %0, i64 2
  %39 = load i8, ptr %38, align 1
  %40 = icmp eq i8 %39, 58
  br i1 %40, label %41, label %.tail.thread

41:                                               ; preds = %.tail
  %42 = getelementptr inbounds nuw i8, ptr %0, i64 3
  %43 = tail call i64 @strtol(ptr noundef nonnull captures(none) %42, ptr noundef null, i32 noundef 10) #27
  %44 = trunc i64 %43 to i32
  %45 = icmp sgt i32 %44, -1
  br i1 %45, label %46, label %.thread

46:                                               ; preds = %41
  %47 = tail call ptr @BIO_new_fd(i32 noundef %44, i32 noundef 0) #27
  store ptr %47, ptr @app_get_pass.pwdbio, align 8, !tbaa !26
  %48 = icmp eq ptr %47, null
  br i1 %48, label %.thread, label %51

.thread:                                          ; preds = %41, %46
  %49 = load ptr, ptr @bio_err, align 8, !tbaa !26
  %50 = tail call i32 (ptr, ptr, ...) @BIO_printf(ptr noundef %49, ptr noundef nonnull @.str.195, ptr noundef nonnull %42) #27
  br label %.critedge

51:                                               ; preds = %46
  %52 = tail call ptr @BIO_f_buffer() #27
  %53 = tail call ptr @BIO_new(ptr noundef %52) #27
  %54 = icmp eq ptr %53, null
  %55 = load ptr, ptr @app_get_pass.pwdbio, align 8, !tbaa !26
  br i1 %54, label %56, label %59

56:                                               ; preds = %51
  tail call void @BIO_free_all(ptr noundef %55) #27
  store ptr null, ptr @app_get_pass.pwdbio, align 8, !tbaa !26
  %57 = load ptr, ptr @bio_err, align 8, !tbaa !26
  %58 = tail call i32 (ptr, ptr, ...) @BIO_printf(ptr noundef %57, ptr noundef nonnull @.str.117) #27
  br label %.critedge

59:                                               ; preds = %51
  %60 = tail call ptr @BIO_push(ptr noundef nonnull %53, ptr noundef %55) #27
  store ptr %60, ptr @app_get_pass.pwdbio, align 8, !tbaa !26
  br label %89

.tail.thread:                                     ; preds = %sub_1, %sub_0, %.tail
  %61 = tail call i32 @strcmp(ptr noundef nonnull dereferenceable(1) %0, ptr noundef nonnull dereferenceable(6) @.str.196) #29
  %62 = icmp eq i32 %61, 0
  br i1 %62, label %63, label %73

63:                                               ; preds = %.tail.thread
  %64 = load ptr, ptr @stdin, align 8, !tbaa !28
  tail call void @setbuf(ptr noundef %64, ptr noundef null) #27
  %65 = load ptr, ptr @stdin, align 8, !tbaa !28
  %66 = tail call i32 @FMT_istext(i32 noundef 32769) #27
  %.not.i = icmp eq i32 %66, 0
  %67 = select i1 %.not.i, i32 0, i32 16
  %68 = tail call ptr @BIO_new_fp(ptr noundef %65, i32 noundef %67) #27
  store ptr %68, ptr @app_get_pass.pwdbio, align 8, !tbaa !26
  %69 = icmp eq ptr %68, null
  br i1 %69, label %70, label %89

70:                                               ; preds = %63
  %71 = load ptr, ptr @bio_err, align 8, !tbaa !26
  %72 = tail call i32 (ptr, ptr, ...) @BIO_printf(ptr noundef %71, ptr noundef nonnull @.str.197) #27
  br label %.critedge

73:                                               ; preds = %.tail.thread
  %74 = tail call ptr @strchr(ptr noundef nonnull dereferenceable(1) %0, i32 noundef 58) #29
  %75 = icmp eq ptr %74, null
  br i1 %75, label %81, label %76

76:                                               ; preds = %73
  %77 = ptrtoint ptr %74 to i64
  %78 = ptrtoint ptr %0 to i64
  %79 = sub i64 %77, %78
  %80 = icmp sgt i64 %79, 4
  br i1 %80, label %81, label %84

81:                                               ; preds = %76, %73
  %82 = load ptr, ptr @bio_err, align 8, !tbaa !26
  %83 = tail call i32 (ptr, ptr, ...) @BIO_printf(ptr noundef %82, ptr noundef nonnull @.str.198, i32 noundef 5) #27
  br label %.critedge

84:                                               ; preds = %76
  %85 = load ptr, ptr @bio_err, align 8, !tbaa !26
  %86 = trunc i64 %79 to i32
  %87 = add i32 %86, 1
  %88 = tail call i32 (ptr, ptr, ...) @BIO_printf(ptr noundef %85, ptr noundef nonnull @.str.199, i32 noundef %87, ptr noundef nonnull %0) #27
  br label %.critedge

89:                                               ; preds = %59, %28, %63, %21
  %90 = phi ptr [ %60, %59 ], [ %30, %28 ], [ %68, %63 ], [ %23, %21 ]
  %91 = call i32 @BIO_gets(ptr noundef %90, ptr noundef nonnull %3, i32 noundef 1024) #27
  %.not = icmp eq i32 %1, 1
  br i1 %.not, label %94, label %92

92:                                               ; preds = %89
  %93 = load ptr, ptr @app_get_pass.pwdbio, align 8, !tbaa !26
  call void @BIO_free_all(ptr noundef %93) #27
  store ptr null, ptr @app_get_pass.pwdbio, align 8, !tbaa !26
  br label %94

94:                                               ; preds = %92, %89
  %95 = icmp slt i32 %91, 1
  br i1 %95, label %96, label %99

96:                                               ; preds = %94
  %97 = load ptr, ptr @bio_err, align 8, !tbaa !26
  %98 = call i32 (ptr, ptr, ...) @BIO_printf(ptr noundef %97, ptr noundef nonnull @.str.200) #27
  br label %.critedge

99:                                               ; preds = %94
  %100 = call ptr @strchr(ptr noundef nonnull dereferenceable(1) %3, i32 noundef 10) #29
  %.not46 = icmp eq ptr %100, null
  br i1 %.not46, label %102, label %101

101:                                              ; preds = %99
  store i8 0, ptr %100, align 1, !tbaa !13
  br label %102

102:                                              ; preds = %101, %99
  %103 = call noalias ptr @CRYPTO_strdup(ptr noundef nonnull %3, ptr noundef nonnull @.str.1, i32 noundef 339) #27
  br label %.critedge

.critedge:                                        ; preds = %.thread, %56, %81, %84, %102, %96, %70, %32, %19, %16, %6
  %.0 = phi ptr [ %8, %6 ], [ null, %16 ], [ %20, %19 ], [ null, %32 ], [ null, %96 ], [ %103, %102 ], [ null, %70 ], [ null, %84 ], [ null, %81 ], [ null, %56 ], [ null, %.thread ]
  call void @llvm.lifetime.end.p0(i64 1024, ptr nonnull %3) #27
  ret ptr %.0
}